; Function Attrs: mustprogress uwtable
define hidden noundef nonnull align 8 dereferenceable(8) ptr @_ZNK3nla4core12print_monicsERSo(ptr noundef nonnull align 8 dereferenceable(4736) %0, ptr noundef nonnull returned align 8 dereferenceable(8) %1) local_unnamed_addr #4 align 2 {
  %3 = getelementptr inbounds nuw i8, ptr %0, i64 4544
  %4 = load ptr, ptr %3, align 8, !tbaa !293
  %5 = icmp eq ptr %4, null
  br i1 %5, label %._crit_edge, label %_ZNK3nla7emonics3endEv.exit

_ZNK3nla7emonics3endEv.exit:                      ; preds = %2
  %6 = getelementptr inbounds i8, ptr %4, i64 -4
  %7 = load i32, ptr %6, align 4, !tbaa !249
  %8 = zext i32 %7 to i64
  %9 = getelementptr inbounds nuw %"class.nla::monic", ptr %4, i64 %8
  %.not10 = icmp eq i32 %7, 0
  br i1 %.not10, label %._crit_edge, label %.lr.ph

._crit_edge:                                      ; preds = %.lr.ph, %2, %_ZNK3nla7emonics3endEv.exit
  ret ptr %1

.lr.ph:                                           ; preds = %_ZNK3nla7emonics3endEv.exit, %.lr.ph
  %.011 = phi ptr [ %11, %.lr.ph ], [ %4, %_ZNK3nla7emonics3endEv.exit ]
  %10 = tail call noundef nonnull align 8 dereferenceable(8) ptr @_ZNK3nla4core21print_monic_with_varsERKNS_5monicERSo(ptr noundef nonnull align 8 dereferenceable(4736) %0, ptr noundef nonnull align 8 dereferenceable(34) %.011, ptr noundef nonnull align 8 dereferenceable(8) %1)
  %11 = getelementptr inbounds nuw i8, ptr %.011, i64 40
  %.not = icmp eq ptr %11, %9
  br i1 %.not, label %._crit_edge, label %.lr.ph
}